target datalayout = "e-m:e-p270:32:32-p271:32:32-p272:64:64-i64:64-i128:128-f80:128-n8:16:32:64-S128"
target triple = "x86_64-pc-linux-gnu"

%struct.slurmdb_wckey_cond_t = type { ptr, ptr, ptr, ptr, i16, i64, i64, ptr, i16, i16 }

; Function Attrs: nounwind uwtable
define dso_local void @slurmdb_destroy_wckey_cond(ptr noundef %0) #0 {
  %2 = alloca ptr, align 8
  %3 = alloca ptr, align 8
  store ptr %0, ptr %2, align 8
  call void @llvm.lifetime.start.p0(i64 8, ptr %3) #10
  %4 = load ptr, ptr %2, align 8
  store ptr %4, ptr %3, align 8
  %5 = load ptr, ptr %3, align 8
  %6 = icmp ne ptr %5, null
  br i1 %6, label %7, label %64

7:                                                ; preds = %1
  br label %8

8:                                                ; preds = %7
  %9 = load ptr, ptr %3, align 8
  %10 = getelementptr inbounds nuw %struct.slurmdb_wckey_cond_t, ptr %9, i32 0, i32 0
  %11 = load ptr, ptr %10, align 8
  %12 = icmp ne ptr %11, null
  br i1 %12, label %13, label %17

13:                                               ; preds = %8
  %14 = load ptr, ptr %3, align 8
  %15 = getelementptr inbounds nuw %struct.slurmdb_wckey_cond_t, ptr %14, i32 0, i32 0
  %16 = load ptr, ptr %15, align 8
  call void @list_destroy(ptr noundef %16)
  br label %17

17:                                               ; preds = %13, %8
  %18 = load ptr, ptr %3, align 8
  %19 = getelementptr inbounds nuw %struct.slurmdb_wckey_cond_t, ptr %18, i32 0, i32 0
  store ptr null, ptr %19, align 8
  br label %20

20:                                               ; preds = %17
  br label %21

21:                                               ; preds = %20
  br label %22

22:                                               ; preds = %21
  %23 = load ptr, ptr %3, align 8
  %24 = getelementptr inbounds nuw %struct.slurmdb_wckey_cond_t, ptr %23, i32 0, i32 2
  %25 = load ptr, ptr %24, align 8
  %26 = icmp ne ptr %25, null
  br i1 %26, label %27, label %31

27:                                               ; preds = %22
  %28 = load ptr, ptr %3, align 8
  %29 = getelementptr inbounds nuw %struct.slurmdb_wckey_cond_t, ptr %28, i32 0, i32 2
  %30 = load ptr, ptr %29, align 8
  call void @list_destroy(ptr noundef %30)
  br label %31

31:                                               ; preds = %27, %22
  %32 = load ptr, ptr %3, align 8
  %33 = getelementptr inbounds nuw %struct.slurmdb_wckey_cond_t, ptr %32, i32 0, i32 2
  store ptr null, ptr %33, align 8
  br label %34

34:                                               ; preds = %31
  br label %35

35:                                               ; preds = %34
  br label %36

36:                                               ; preds = %35
  %37 = load ptr, ptr %3, align 8
  %38 = getelementptr inbounds nuw %struct.slurmdb_wckey_cond_t, ptr %37, i32 0, i32 3
  %39 = load ptr, ptr %38, align 8
  %40 = icmp ne ptr %39, null
  br i1 %40, label %41, label %45

41:                                               ; preds = %36
  %42 = load ptr, ptr %3, align 8
  %43 = getelementptr inbounds nuw %struct.slurmdb_wckey_cond_t, ptr %42, i32 0, i32 3
  %44 = load ptr, ptr %43, align 8
  call void @list_destroy(ptr noundef %44)
  br label %45

45:                                               ; preds = %41, %36
  %46 = load ptr, ptr %3, align 8
  %47 = getelementptr inbounds nuw %struct.slurmdb_wckey_cond_t, ptr %46, i32 0, i32 3
  store ptr null, ptr %47, align 8
  br label %48

48:                                               ; preds = %45
  br label %49

49:                                               ; preds = %48
  br label %50

50:                                               ; preds = %49
  %51 = load ptr, ptr %3, align 8
  %52 = getelementptr inbounds nuw %struct.slurmdb_wckey_cond_t, ptr %51, i32 0, i32 7
  %53 = load ptr, ptr %52, align 8
  %54 = icmp ne ptr %53, null
  br i1 %54, label %55, label %59

55:                                               ; preds = %50
  %56 = load ptr, ptr %3, align 8
  %57 = getelementptr inbounds nuw %struct.slurmdb_wckey_cond_t, ptr %56, i32 0, i32 7
  %58 = load ptr, ptr %57, align 8
  call void @list_destroy(ptr noundef %58)
  br label %59

59:                                               ; preds = %55, %50
  %60 = load ptr, ptr %3, align 8
  %61 = getelementptr inbounds nuw %struct.slurmdb_wckey_cond_t, ptr %60, i32 0, i32 7
  store ptr null, ptr %61, align 8
  br label %62

62:                                               ; preds = %59
  br label %63

63:                                               ; preds = %62
  call void @slurm_xfree(ptr noundef %3)
  br label %64

64:                                               ; preds = %63, %1
  call void @llvm.lifetime.end.p0(i64 8, ptr %3) #10
  ret void
}