; Function Attrs: nounwind uwtable
define dso_local void @slurmdb_destroy_wckey_cond(ptr noundef %0) local_unnamed_addr #0 {
  %2 = alloca ptr, align 8
  call void @llvm.lifetime.start.p0(i64 8, ptr nonnull %2) #19
  store ptr %0, ptr %2, align 8
  %.not = icmp eq ptr %0, null
  br i1 %.not, label %19, label %3

3:                                                ; preds = %1
  %4 = load ptr, ptr %0, align 8
  %.not5 = icmp eq ptr %4, null
  br i1 %.not5, label %6, label %5

5:                                                ; preds = %3
  tail call void @list_destroy(ptr noundef nonnull %4) #19
  br label %6

6:                                                ; preds = %5, %3
  store ptr null, ptr %0, align 8
  %7 = getelementptr inbounds nuw i8, ptr %0, i64 16
  %8 = load ptr, ptr %7, align 8
  %.not6 = icmp eq ptr %8, null
  br i1 %.not6, label %10, label %9

9:                                                ; preds = %6
  tail call void @list_destroy(ptr noundef nonnull %8) #19
  br label %10

10:                                               ; preds = %9, %6
  store ptr null, ptr %7, align 8
  %11 = getelementptr inbounds nuw i8, ptr %0, i64 24
  %12 = load ptr, ptr %11, align 8
  %.not7 = icmp eq ptr %12, null
  br i1 %.not7, label %14, label %13

13:                                               ; preds = %10
  tail call void @list_destroy(ptr noundef nonnull %12) #19
  br label %14

14:                                               ; preds = %13, %10
  store ptr null, ptr %11, align 8
  %15 = getelementptr inbounds nuw i8, ptr %0, i64 56
  %16 = load ptr, ptr %15, align 8
  %.not8 = icmp eq ptr %16, null
  br i1 %.not8, label %18, label %17

17:                                               ; preds = %14
  tail call void @list_destroy(ptr noundef nonnull %16) #19
  br label %18

18:                                               ; preds = %17, %14
  store ptr null, ptr %15, align 8
  call void @slurm_xfree(ptr noundef nonnull %2) #19
  br label %19

19:                                               ; preds = %18, %1
  call void @llvm.lifetime.end.p0(i64 8, ptr nonnull %2) #19
  ret void
}